; Function Attrs: mustprogress uwtable
define internal fastcc noundef i64 @"_ZZNK8facebook5velox13LocalReadFile6preadvEmRKSt6vectorIN5folly5RangeIPcEESaIS6_EEENK3$_0clEv"(ptr nocapture noundef nonnull readonly align 8 dereferenceable(32) %this) unnamed_addr #0 align 2 personality ptr @__gxx_personality_v0 {
entry:
  %ref.tmp = alloca %"class.google::LogMessage", align 8
  %ref.tmp7 = alloca %"class.std::__cxx11::basic_string", align 8
  %0 = load ptr, ptr %this, align 8
  %fd_ = getelementptr inbounds i8, ptr %0, i64 48
  %1 = load i32, ptr %fd_, align 8
  %2 = getelementptr inbounds i8, ptr %this, i64 8
  %3 = load ptr, ptr %2, align 8
  %4 = load ptr, ptr %3, align 8
  %_M_finish.i = getelementptr inbounds i8, ptr %3, i64 8
  %5 = load ptr, ptr %_M_finish.i, align 8
  %sub.ptr.lhs.cast.i = ptrtoint ptr %5 to i64
  %sub.ptr.rhs.cast.i = ptrtoint ptr %4 to i64
  %sub.ptr.sub.i = sub i64 %sub.ptr.lhs.cast.i, %sub.ptr.rhs.cast.i
  %sub.ptr.div.i = lshr exact i64 %sub.ptr.sub.i, 4
  %conv = trunc i64 %sub.ptr.div.i to i32
  %6 = getelementptr inbounds i8, ptr %this, i64 16
  %7 = load ptr, ptr %6, align 8
  %8 = load i64, ptr %7, align 8
  %call3 = tail call i64 @preadv(i32 noundef %1, ptr noundef %4, i32 noundef %conv, i64 noundef %8)
  %cmp = icmp slt i64 %call3, 0
  br i1 %cmp, label %if.then, label %if.else

if.then:                                          ; preds = %entry
  call void @_ZN6google10LogMessageC1EPKcii(ptr noundef nonnull align 8 dereferenceable(16) %ref.tmp, ptr noundef nonnull @.str, i32 noundef 166, i32 noundef 2)
  %call4 = invoke noundef nonnull align 8 dereferenceable(8) ptr @_ZN6google10LogMessage6streamEv(ptr noundef nonnull align 8 dereferenceable(16) %ref.tmp)
          to label %invoke.cont unwind label %lpad

invoke.cont:                                      ; preds = %if.then
  %call6 = invoke noundef nonnull align 8 dereferenceable(8) ptr @_ZStlsISt11char_traitsIcEERSt13basic_ostreamIcT_ES5_PKc(ptr noundef nonnull align 8 dereferenceable(8) %call4, ptr noundef nonnull @.str.8)
          to label %invoke.cont5 unwind label %lpad

invoke.cont5:                                     ; preds = %invoke.cont
  %call8 = tail call ptr @__errno_location() #26
  %9 = load i32, ptr %call8, align 4
  invoke void @_ZN5folly8errnoStrB5cxx11Ei(ptr nonnull sret(%"class.std::__cxx11::basic_string") align 8 %ref.tmp7, i32 noundef %9)
          to label %invoke.cont9 unwind label %lpad

invoke.cont9:                                     ; preds = %invoke.cont5
  %call12 = invoke noundef nonnull align 8 dereferenceable(8) ptr @_ZStlsIcSt11char_traitsIcESaIcEERSt13basic_ostreamIT_T0_ES7_RKNSt7__cxx1112basic_stringIS4_S5_T1_EE(ptr noundef nonnull align 8 dereferenceable(8) %call6, ptr noundef nonnull align 8 dereferenceable(32) %ref.tmp7)
          to label %invoke.cont11 unwind label %lpad10

invoke.cont11:                                    ; preds = %invoke.cont9
  call void @_ZNSt7__cxx1112basic_stringIcSt11char_traitsIcESaIcEED1Ev(ptr noundef nonnull align 8 dereferenceable(32) %ref.tmp7) #11
  call void @_ZN6google10LogMessageD1Ev(ptr noundef nonnull align 8 dereferenceable(16) %ref.tmp) #11
  br label %if.end

lpad:                                             ; preds = %invoke.cont5, %invoke.cont, %if.then
  %10 = landingpad { ptr, i32 }
          cleanup
  br label %ehcleanup

lpad10:                                           ; preds = %invoke.cont9
  %11 = landingpad { ptr, i32 }
          cleanup
  call void @_ZNSt7__cxx1112basic_stringIcSt11char_traitsIcESaIcEED1Ev(ptr noundef nonnull align 8 dereferenceable(32) %ref.tmp7) #11
  br label %ehcleanup

ehcleanup:                                        ; preds = %lpad10, %lpad
  %.pn = phi { ptr, i32 } [ %11, %lpad10 ], [ %10, %lpad ]
  call void @_ZN6google10LogMessageD1Ev(ptr noundef nonnull align 8 dereferenceable(16) %ref.tmp) #11
  resume { ptr, i32 } %.pn

if.else:                                          ; preds = %entry
  %12 = getelementptr inbounds i8, ptr %this, i64 24
  %13 = load ptr, ptr %12, align 8
  %14 = load i64, ptr %13, align 8
  %add = add i64 %14, %call3
  store i64 %add, ptr %13, align 8
  %15 = load ptr, ptr %6, align 8
  %16 = load i64, ptr %15, align 8
  %add13 = add i64 %16, %call3
  store i64 %add13, ptr %15, align 8
  br label %if.end

if.end:                                           ; preds = %if.else, %invoke.cont11
  %17 = load ptr, ptr %2, align 8
  %18 = load ptr, ptr %17, align 8
  %_M_finish.i.i = getelementptr inbounds i8, ptr %17, i64 8
  %19 = load ptr, ptr %_M_finish.i.i, align 8
  %tobool.not.i.i = icmp eq ptr %19, %18
  br i1 %tobool.not.i.i, label %_ZNSt6vectorI5iovecSaIS0_EE5clearEv.exit, label %invoke.cont.i.i

invoke.cont.i.i:                                  ; preds = %if.end
  store ptr %18, ptr %_M_finish.i.i, align 8
  br label %_ZNSt6vectorI5iovecSaIS0_EE5clearEv.exit

_ZNSt6vectorI5iovecSaIS0_EE5clearEv.exit:         ; preds = %if.end, %invoke.cont.i.i
  ret i64 %call3
}